cnumpy.core.multiarray
_reconstruct
p0
(cnumpy
ndarray
p1
(I0
tp2
S'b'
p3
tp4
Rp5
(I1
(I2
I2
tp6
cnumpy
dtype
p7
(S'f8'
p8
I0
I1
tp9
Rp10
(I3
S'<'
p11
NNNI-1
I-1
I0
tp12
bI00
S'Sa\xe2\xfd\xc8i\xee?\xd8\xea\xd9!pc\xa9?\xa7\xa6\x1b\xf9\xd8AU?-r\x83\x13_\xf5\xef?'
p13
tp14
b.